target datalayout = "e-m:e-p270:32:32-p271:32:32-p272:64:64-i64:64-i128:128-f80:128-n8:16:32:64-S128"
target triple = "x86_64-pc-linux-gnu"

%struct.Curl_easy = type { i32, i64, i64, ptr, %struct.Curl_llist_node, %struct.Curl_llist_node, i32, i32, %struct.Curl_message, %struct.easy_pollset, %struct.Names, ptr, ptr, ptr, ptr, %struct.SingleRequest, %struct.UserDefined, ptr, ptr, ptr, %struct.Progress, %struct.UrlState, ptr, %struct.PureInfo, %struct.curl_tlssessioninfo }
%struct.Curl_llist_node = type { ptr, ptr, ptr, ptr }
%struct.Curl_message = type { %struct.Curl_llist_node, %struct.CURLMsg }
%struct.CURLMsg = type { i32, ptr, %union.anon }
%union.anon = type { ptr }
%struct.easy_pollset = type { [5 x i32], i32, [5 x i8] }
%struct.Names = type { ptr, i32 }
%struct.SingleRequest = type <{ i64, i64, i64, i64, %struct.curltime, i32, i32, i32, i32, i64, i32, i32, i8, i8, [2 x i8], i32, ptr, ptr, %struct.bufq, i64, i64, ptr, ptr, %union.anon.0, ptr, i8, i32, [3 x i8] }>
%struct.curltime = type { i64, i32 }
%struct.bufq = type { ptr, ptr, ptr, ptr, i64, i64, i64, i32 }
%union.anon.0 = type { ptr }
%struct.UserDefined = type <{ ptr, ptr, ptr, ptr, ptr, ptr, i64, i64, i64, ptr, ptr, i64, ptr, ptr, ptr, ptr, ptr, ptr, ptr, ptr, ptr, ptr, ptr, ptr, ptr, ptr, ptr, ptr, ptr, ptr, ptr, ptr, ptr, ptr, ptr, i64, i64, i64, i64, i64, i64, i64, i64, i64, ptr, ptr, %struct.curl_mimepart, ptr, ptr, ptr, i64, %struct.ssl_config_data, %struct.ssl_config_data, ptr, i16, i8, i8, %struct.ssl_general_config, i32, i32, i32, [4 x i8], ptr, ptr, i64, i32, i8, i8, i8, i8, ptr, ptr, ptr, i32, [4 x i8], [74 x ptr], [8 x ptr], i32, i32, i32, [4 x i8], ptr, i32, [4 x i8], ptr, ptr, ptr, ptr, ptr, i32, i32, i32, i32, i32, i32, i32, i32, i64, ptr, ptr, i64, ptr, i64, ptr, ptr, ptr, ptr, i32, i16, i16, i16, i8, i8, i8, i8, i8, i8, i8, i8, i64, [6 x i8] }>
%struct.curl_mimepart = type { ptr, ptr, i32, i32, ptr, ptr, ptr, ptr, ptr, ptr, ptr, ptr, ptr, ptr, ptr, i64, %struct.mime_state, ptr, %struct.mime_encoder_state, i64 }
%struct.mime_state = type { i32, ptr, i64 }
%struct.mime_encoder_state = type { i64, i64, i64, [256 x i8] }
%struct.ssl_config_data = type { %struct.ssl_primary_config, i64, ptr, ptr, ptr, ptr, ptr, ptr, ptr, i16 }
%struct.ssl_primary_config = type { ptr, ptr, ptr, ptr, ptr, ptr, ptr, ptr, ptr, ptr, ptr, ptr, ptr, ptr, i8, i32, i8, i8 }
%struct.ssl_general_config = type { i32 }
%struct.Progress = type { i64, %struct.pgrs_dir, %struct.pgrs_dir, i64, i64, i32, i32, i64, i64, i64, i64, i64, i64, i64, i64, i64, %struct.curltime, %struct.curltime, %struct.curltime, %struct.curltime, %struct.curltime, [6 x i64], [6 x %struct.curltime], i32, i8 }
%struct.pgrs_dir = type { i64, i64, i64, %struct.pgrs_measure }
%struct.pgrs_measure = type { %struct.curltime, i64 }
%struct.UrlState = type { %struct.curltime, i64, i64, %struct.dynbuf, ptr, i64, ptr, i32, i32, i32, ptr, i32, i64, i32, ptr, %struct.digestdata, %struct.digestdata, %struct.auth, %struct.auth, %struct.Curl_async, ptr, i8, %struct.curltime, %struct.Curl_tree, %struct.Curl_llist, [15 x %struct.time_node], ptr, ptr, i64, i64, i64, i64, [32 x i8], i64, ptr, ptr, ptr, %struct.urlpieces, ptr, ptr, ptr, ptr, ptr, i64, %struct.dynbuf, %struct.Curl_llist, [2 x %struct.curl_header], ptr, i32, ptr, ptr, %struct.store_netrc, %struct.dynamically_allocated_data, i8, i8, i8, i8, i32 }
%struct.digestdata = type { ptr, ptr, ptr, ptr, ptr, ptr, i32, i8, i8 }
%struct.auth = type { i64, i64, i64, i8 }
%struct.Curl_async = type { ptr, ptr, ptr, ptr, i32, i32, i8 }
%struct.Curl_tree = type { ptr, ptr, ptr, ptr, %struct.curltime, ptr }
%struct.time_node = type { %struct.Curl_llist_node, %struct.curltime, i32 }
%struct.urlpieces = type { ptr, ptr, ptr, ptr, ptr, ptr, ptr, ptr }
%struct.dynbuf = type { ptr, i64, i64, i64 }
%struct.Curl_llist = type { ptr, ptr, ptr, i64 }
%struct.curl_header = type { ptr, ptr, i64, i64, i32, ptr }
%struct.store_netrc = type { %struct.dynbuf, ptr, i8 }
%struct.dynamically_allocated_data = type { ptr, ptr, ptr, ptr, ptr, ptr, ptr, ptr, ptr, ptr, ptr, ptr, ptr, ptr }
%struct.PureInfo = type { i32, i32, i32, i64, i64, i64, i64, i64, i64, i64, ptr, ptr, i64, i32, %struct.ip_quadruple, i32, ptr, i32, %struct.curl_certinfo, i32, i8 }
%struct.ip_quadruple = type { [46 x i8], [46 x i8], i32, i32 }
%struct.curl_certinfo = type { i32, ptr }
%struct.curl_tlssessioninfo = type { i32, ptr }

@Curl_cfree = external global ptr, align 8
@Curl_ccalloc = external global ptr, align 8

; Function Attrs: nounwind uwtable
define hidden void @Curl_freeset(ptr noundef %0) #0 {
  %2 = alloca ptr, align 8
  %3 = alloca i32, align 4
  %4 = alloca i32, align 4
  store ptr %0, ptr %2, align 8, !tbaa !3
  call void @llvm.lifetime.start.p0(i64 4, ptr %3) #8
  call void @llvm.lifetime.start.p0(i64 4, ptr %4) #8
  store i32 0, ptr %3, align 4, !tbaa !8
  br label %5

5:                                                ; preds = %26, %1
  %6 = load i32, ptr %3, align 4, !tbaa !8
  %7 = icmp ult i32 %6, 74
  br i1 %7, label %8, label %29

8:                                                ; preds = %5
  br label %9

9:                                                ; preds = %8
  %10 = load ptr, ptr @Curl_cfree, align 8, !tbaa !10
  %11 = load ptr, ptr %2, align 8, !tbaa !3
  %12 = getelementptr inbounds nuw %struct.Curl_easy, ptr %11, i32 0, i32 16
  %13 = getelementptr inbounds nuw %struct.UserDefined, ptr %12, i32 0, i32 75
  %14 = load i32, ptr %3, align 4, !tbaa !8
  %15 = zext i32 %14 to i64
  %16 = getelementptr inbounds nuw [74 x ptr], ptr %13, i64 0, i64 %15
  %17 = load ptr, ptr %16, align 8, !tbaa !11
  call void %10(ptr noundef %17)
  %18 = load ptr, ptr %2, align 8, !tbaa !3
  %19 = getelementptr inbounds nuw %struct.Curl_easy, ptr %18, i32 0, i32 16
  %20 = getelementptr inbounds nuw %struct.UserDefined, ptr %19, i32 0, i32 75
  %21 = load i32, ptr %3, align 4, !tbaa !8
  %22 = zext i32 %21 to i64
  %23 = getelementptr inbounds nuw [74 x ptr], ptr %20, i64 0, i64 %22
  store ptr null, ptr %23, align 8, !tbaa !11
  br label %24

24:                                               ; preds = %9
  br label %25

25:                                               ; preds = %24
  br label %26

26:                                               ; preds = %25
  %27 = load i32, ptr %3, align 4, !tbaa !8
  %28 = add i32 %27, 1
  store i32 %28, ptr %3, align 4, !tbaa !8
  br label %5, !llvm.loop !13

29:                                               ; preds = %5
  store i32 0, ptr %4, align 4, !tbaa !8
  br label %30

30:                                               ; preds = %51, %29
  %31 = load i32, ptr %4, align 4, !tbaa !8
  %32 = icmp ult i32 %31, 8
  br i1 %32, label %33, label %54

33:                                               ; preds = %30
  br label %34

34:                                               ; preds = %33
  %35 = load ptr, ptr @Curl_cfree, align 8, !tbaa !10
  %36 = load ptr, ptr %2, align 8, !tbaa !3
  %37 = getelementptr inbounds nuw %struct.Curl_easy, ptr %36, i32 0, i32 16
  %38 = getelementptr inbounds nuw %struct.UserDefined, ptr %37, i32 0, i32 76
  %39 = load i32, ptr %4, align 4, !tbaa !8
  %40 = zext i32 %39 to i64
  %41 = getelementptr inbounds nuw [8 x ptr], ptr %38, i64 0, i64 %40
  %42 = load ptr, ptr %41, align 8, !tbaa !15
  call void %35(ptr noundef %42)
  %43 = load ptr, ptr %2, align 8, !tbaa !3
  %44 = getelementptr inbounds nuw %struct.Curl_easy, ptr %43, i32 0, i32 16
  %45 = getelementptr inbounds nuw %struct.UserDefined, ptr %44, i32 0, i32 76
  %46 = load i32, ptr %4, align 4, !tbaa !8
  %47 = zext i32 %46 to i64
  %48 = getelementptr inbounds nuw [8 x ptr], ptr %45, i64 0, i64 %47
  store ptr null, ptr %48, align 8, !tbaa !15
  br label %49

49:                                               ; preds = %34
  br label %50

50:                                               ; preds = %49
  br label %51

51:                                               ; preds = %50
  %52 = load i32, ptr %4, align 4, !tbaa !8
  %53 = add i32 %52, 1
  store i32 %53, ptr %4, align 4, !tbaa !8
  br label %30, !llvm.loop !17

54:                                               ; preds = %30
  %55 = load ptr, ptr %2, align 8, !tbaa !3
  %56 = getelementptr inbounds nuw %struct.Curl_easy, ptr %55, i32 0, i32 21
  %57 = getelementptr inbounds nuw %struct.UrlState, ptr %56, i32 0, i32 57
  %58 = load i32, ptr %57, align 4
  %59 = lshr i32 %58, 17
  %60 = and i32 %59, 1
  %61 = icmp ne i32 %60, 0
  br i1 %61, label %62, label %80

62:                                               ; preds = %54
  br label %63

63:                                               ; preds = %62
  %64 = load ptr, ptr @Curl_cfree, align 8, !tbaa !10
  %65 = load ptr, ptr %2, align 8, !tbaa !3
  %66 = getelementptr inbounds nuw %struct.Curl_easy, ptr %65, i32 0, i32 21
  %67 = getelementptr inbounds nuw %struct.UrlState, ptr %66, i32 0, i32 39
  %68 = load ptr, ptr %67, align 8, !tbaa !18
  call void %64(ptr noundef %68)
  %69 = load ptr, ptr %2, align 8, !tbaa !3
  %70 = getelementptr inbounds nuw %struct.Curl_easy, ptr %69, i32 0, i32 21
  %71 = getelementptr inbounds nuw %struct.UrlState, ptr %70, i32 0, i32 39
  store ptr null, ptr %71, align 8, !tbaa !18
  br label %72

72:                                               ; preds = %63
  br label %73

73:                                               ; preds = %72
  %74 = load ptr, ptr %2, align 8, !tbaa !3
  %75 = getelementptr inbounds nuw %struct.Curl_easy, ptr %74, i32 0, i32 21
  %76 = getelementptr inbounds nuw %struct.UrlState, ptr %75, i32 0, i32 57
  %77 = load i32, ptr %76, align 4
  %78 = and i32 %77, -131073
  %79 = or i32 %78, 0
  store i32 %79, ptr %76, align 4
  br label %80

80:                                               ; preds = %73, %54
  %81 = load ptr, ptr %2, align 8, !tbaa !3
  %82 = getelementptr inbounds nuw %struct.Curl_easy, ptr %81, i32 0, i32 21
  %83 = getelementptr inbounds nuw %struct.UrlState, ptr %82, i32 0, i32 39
  store ptr null, ptr %83, align 8, !tbaa !18
  %84 = load ptr, ptr %2, align 8, !tbaa !3
  %85 = getelementptr inbounds nuw %struct.Curl_easy, ptr %84, i32 0, i32 21
  %86 = getelementptr inbounds nuw %struct.UrlState, ptr %85, i32 0, i32 57
  %87 = load i32, ptr %86, align 4
  %88 = lshr i32 %87, 16
  %89 = and i32 %88, 1
  %90 = icmp ne i32 %89, 0
  br i1 %90, label %91, label %109

91:                                               ; preds = %80
  br label %92

92:                                               ; preds = %91
  %93 = load ptr, ptr @Curl_cfree, align 8, !tbaa !10
  %94 = load ptr, ptr %2, align 8, !tbaa !3
  %95 = getelementptr inbounds nuw %struct.Curl_easy, ptr %94, i32 0, i32 21
  %96 = getelementptr inbounds nuw %struct.UrlState, ptr %95, i32 0, i32 38
  %97 = load ptr, ptr %96, align 8, !tbaa !84
  call void %93(ptr noundef %97)
  %98 = load ptr, ptr %2, align 8, !tbaa !3
  %99 = getelementptr inbounds nuw %struct.Curl_easy, ptr %98, i32 0, i32 21
  %100 = getelementptr inbounds nuw %struct.UrlState, ptr %99, i32 0, i32 38
  store ptr null, ptr %100, align 8, !tbaa !84
  br label %101

101:                                              ; preds = %92
  br label %102

102:                                              ; preds = %101
  %103 = load ptr, ptr %2, align 8, !tbaa !3
  %104 = getelementptr inbounds nuw %struct.Curl_easy, ptr %103, i32 0, i32 21
  %105 = getelementptr inbounds nuw %struct.UrlState, ptr %104, i32 0, i32 57
  %106 = load i32, ptr %105, align 4
  %107 = and i32 %106, -65537
  %108 = or i32 %107, 0
  store i32 %108, ptr %105, align 4
  br label %109

109:                                              ; preds = %102, %80
  %110 = load ptr, ptr %2, align 8, !tbaa !3
  %111 = getelementptr inbounds nuw %struct.Curl_easy, ptr %110, i32 0, i32 21
  %112 = getelementptr inbounds nuw %struct.UrlState, ptr %111, i32 0, i32 38
  store ptr null, ptr %112, align 8, !tbaa !84
  %113 = load ptr, ptr %2, align 8, !tbaa !3
  %114 = getelementptr inbounds nuw %struct.Curl_easy, ptr %113, i32 0, i32 16
  %115 = getelementptr inbounds nuw %struct.UserDefined, ptr %114, i32 0, i32 46
  call void @Curl_mime_cleanpart(ptr noundef %115)
  %116 = load ptr, ptr %2, align 8, !tbaa !3
  %117 = getelementptr inbounds nuw %struct.Curl_easy, ptr %116, i32 0, i32 21
  %118 = getelementptr inbounds nuw %struct.UrlState, ptr %117, i32 0, i32 49
  %119 = load ptr, ptr %118, align 8, !tbaa !85
  call void @curl_slist_free_all(ptr noundef %119)
  %120 = load ptr, ptr %2, align 8, !tbaa !3
  %121 = getelementptr inbounds nuw %struct.Curl_easy, ptr %120, i32 0, i32 21
  %122 = getelementptr inbounds nuw %struct.UrlState, ptr %121, i32 0, i32 49
  store ptr null, ptr %122, align 8, !tbaa !85
  call void @llvm.lifetime.end.p0(i64 4, ptr %4) #8
  call void @llvm.lifetime.end.p0(i64 4, ptr %3) #8
  ret void
}

; Function Attrs: nounwind uwtable
define hidden i32 @Curl_open(ptr noundef %0) #0 {
  %2 = alloca i32, align 4
  %3 = alloca ptr, align 8
  %4 = alloca i32, align 4
  %5 = alloca ptr, align 8
  %6 = alloca i32, align 4
  store ptr %0, ptr %3, align 8, !tbaa !86
  call void @llvm.lifetime.start.p0(i64 4, ptr %4) #8
  call void @llvm.lifetime.start.p0(i64 8, ptr %5) #8
  %7 = load ptr, ptr @Curl_ccalloc, align 8, !tbaa !10
  %8 = call ptr %7(i64 noundef 1, i64 noundef 5312)
  store ptr %8, ptr %5, align 8, !tbaa !3
  %9 = load ptr, ptr %5, align 8, !tbaa !3
  %10 = icmp ne ptr %9, null
  br i1 %10, label %15, label %11

11:                                               ; preds = %1
  br label %12

12:                                               ; preds = %11
  br label %13

13:                                               ; preds = %12
  br label %14

14:                                               ; preds = %13
  store i32 27, ptr %2, align 4
  store i32 1, ptr %6, align 4
  br label %99

15:                                               ; preds = %1
  %16 = load ptr, ptr %5, align 8, !tbaa !3
  %17 = getelementptr inbounds nuw %struct.Curl_easy, ptr %16, i32 0, i32 0
  store i32 -1059136595, ptr %17, align 8, !tbaa !90
  %18 = load ptr, ptr %5, align 8, !tbaa !3
  %19 = getelementptr inbounds nuw %struct.Curl_easy, ptr %18, i32 0, i32 15
  call void @Curl_req_init(ptr noundef %19)
  %20 = load ptr, ptr %5, align 8, !tbaa !3
  %21 = load ptr, ptr %5, align 8, !tbaa !3
  %22 = getelementptr inbounds nuw %struct.Curl_easy, ptr %21, i32 0, i32 21
  %23 = getelementptr inbounds nuw %struct.UrlState, ptr %22, i32 0, i32 19
  %24 = getelementptr inbounds nuw %struct.Curl_async, ptr %23, i32 0, i32 3
  %25 = call i32 @Curl_resolver_init(ptr noundef %20, ptr noundef %24)
  store i32 %25, ptr %4, align 4, !tbaa !8
  %26 = load i32, ptr %4, align 4, !tbaa !8
  %27 = icmp ne i32 %26, 0
  br i1 %27, label %28, label %38

28:                                               ; preds = %15
  br label %29

29:                                               ; preds = %28
  br label %30

30:                                               ; preds = %29
  br label %31

31:                                               ; preds = %30
  %32 = load ptr, ptr %5, align 8, !tbaa !3
  %33 = getelementptr inbounds nuw %struct.Curl_easy, ptr %32, i32 0, i32 15
  %34 = load ptr, ptr %5, align 8, !tbaa !3
  call void @Curl_req_free(ptr noundef %33, ptr noundef %34)
  %35 = load ptr, ptr @Curl_cfree, align 8, !tbaa !10
  %36 = load ptr, ptr %5, align 8, !tbaa !3
  call void %35(ptr noundef %36)
  %37 = load i32, ptr %4, align 4, !tbaa !8
  store i32 %37, ptr %2, align 4
  store i32 1, ptr %6, align 4
  br label %99

38:                                               ; preds = %15
  %39 = load ptr, ptr %5, align 8, !tbaa !3
  %40 = call i32 @Curl_init_userdefined(ptr noundef %39)
  store i32 %40, ptr %4, align 4, !tbaa !8
  %41 = load i32, ptr %4, align 4, !tbaa !8
  %42 = icmp ne i32 %41, 0
  br i1 %42, label %76, label %43

43:                                               ; preds = %38
  %44 = load ptr, ptr %5, align 8, !tbaa !3
  %45 = getelementptr inbounds nuw %struct.Curl_easy, ptr %44, i32 0, i32 21
  %46 = getelementptr inbounds nuw %struct.UrlState, ptr %45, i32 0, i32 3
  call void @Curl_dyn_init(ptr noundef %46, i64 noundef 102400)
  %47 = load ptr, ptr %5, align 8, !tbaa !3
  %48 = call i32 @Curl_initinfo(ptr noundef %47)
  %49 = load ptr, ptr %5, align 8, !tbaa !3
  %50 = getelementptr inbounds nuw %struct.Curl_easy, ptr %49, i32 0, i32 21
  %51 = getelementptr inbounds nuw %struct.UrlState, ptr %50, i32 0, i32 1
  store i64 -1, ptr %51, align 8, !tbaa !174
  %52 = load ptr, ptr %5, align 8, !tbaa !3
  %53 = getelementptr inbounds nuw %struct.Curl_easy, ptr %52, i32 0, i32 21
  %54 = getelementptr inbounds nuw %struct.UrlState, ptr %53, i32 0, i32 2
  store i64 -1, ptr %54, align 8, !tbaa !175
  %55 = load ptr, ptr %5, align 8, !tbaa !3
  %56 = getelementptr inbounds nuw %struct.Curl_easy, ptr %55, i32 0, i32 1
  store i64 -1, ptr %56, align 8, !tbaa !176
  %57 = load ptr, ptr %5, align 8, !tbaa !3
  %58 = getelementptr inbounds nuw %struct.Curl_easy, ptr %57, i32 0, i32 2
  store i64 -1, ptr %58, align 8, !tbaa !177
  %59 = load ptr, ptr %5, align 8, !tbaa !3
  %60 = getelementptr inbounds nuw %struct.Curl_easy, ptr %59, i32 0, i32 16
  %61 = getelementptr inbounds nuw %struct.UserDefined, ptr %60, i32 0, i32 102
  store i64 -1, ptr %61, align 8, !tbaa !178
  %62 = load ptr, ptr %5, align 8, !tbaa !3
  %63 = getelementptr inbounds nuw %struct.Curl_easy, ptr %62, i32 0, i32 20
  %64 = getelementptr inbounds nuw %struct.Progress, ptr %63, i32 0, i32 6
  %65 = load i32, ptr %64, align 4, !tbaa !179
  %66 = or i32 %65, 16
  store i32 %66, ptr %64, align 4, !tbaa !179
  %67 = load ptr, ptr %5, align 8, !tbaa !3
  %68 = getelementptr inbounds nuw %struct.Curl_easy, ptr %67, i32 0, i32 21
  %69 = getelementptr inbounds nuw %struct.UrlState, ptr %68, i32 0, i32 5
  store i64 -1, ptr %69, align 8, !tbaa !180
  %70 = load ptr, ptr %5, align 8, !tbaa !3
  %71 = getelementptr inbounds nuw %struct.Curl_easy, ptr %70, i32 0, i32 21
  %72 = getelementptr inbounds nuw %struct.UrlState, ptr %71, i32 0, i32 45
  call void @Curl_llist_init(ptr noundef %72, ptr noundef null)
  %73 = load ptr, ptr %5, align 8, !tbaa !3
  %74 = getelementptr inbounds nuw %struct.Curl_easy, ptr %73, i32 0, i32 21
  %75 = getelementptr inbounds nuw %struct.UrlState, ptr %74, i32 0, i32 51
  call void @Curl_netrc_init(ptr noundef %75)
  br label %76

76:                                               ; preds = %43, %38
  %77 = load i32, ptr %4, align 4, !tbaa !8
  %78 = icmp ne i32 %77, 0
  br i1 %78, label %79, label %94

79:                                               ; preds = %76
  %80 = load ptr, ptr %5, align 8, !tbaa !3
  %81 = getelementptr inbounds nuw %struct.Curl_easy, ptr %80, i32 0, i32 21
  %82 = getelementptr inbounds nuw %struct.UrlState, ptr %81, i32 0, i32 19
  %83 = getelementptr inbounds nuw %struct.Curl_async, ptr %82, i32 0, i32 3
  %84 = load ptr, ptr %83, align 8, !tbaa !106
  call void @Curl_resolver_cleanup(ptr noundef %84)
  %85 = load ptr, ptr %5, align 8, !tbaa !3
  %86 = getelementptr inbounds nuw %struct.Curl_easy, ptr %85, i32 0, i32 21
  %87 = getelementptr inbounds nuw %struct.UrlState, ptr %86, i32 0, i32 3
  call void @Curl_dyn_free(ptr noundef %87)
  %88 = load ptr, ptr %5, align 8, !tbaa !3
  call void @Curl_freeset(ptr noundef %88)
  %89 = load ptr, ptr %5, align 8, !tbaa !3
  %90 = getelementptr inbounds nuw %struct.Curl_easy, ptr %89, i32 0, i32 15
  %91 = load ptr, ptr %5, align 8, !tbaa !3
  call void @Curl_req_free(ptr noundef %90, ptr noundef %91)
  %92 = load ptr, ptr @Curl_cfree, align 8, !tbaa !10
  %93 = load ptr, ptr %5, align 8, !tbaa !3
  call void %92(ptr noundef %93)
  store ptr null, ptr %5, align 8, !tbaa !3
  br label %97

94:                                               ; preds = %76
  %95 = load ptr, ptr %5, align 8, !tbaa !3
  %96 = load ptr, ptr %3, align 8, !tbaa !86
  store ptr %95, ptr %96, align 8, !tbaa !3
  br label %97

97:                                               ; preds = %94, %79
  %98 = load i32, ptr %4, align 4, !tbaa !8
  store i32 %98, ptr %2, align 4
  store i32 1, ptr %6, align 4
  br label %99

99:                                               ; preds = %97, %31, %14
  call void @llvm.lifetime.end.p0(i64 8, ptr %5) #8
  call void @llvm.lifetime.end.p0(i64 4, ptr %4) #8
  %100 = load i32, ptr %2, align 4
  ret i32 %100
}