; Function Attrs: nounwind uwtable
define hidden i32 @Curl_open(ptr noundef writeonly captures(none) %0) local_unnamed_addr #0 {
  %2 = load ptr, ptr @Curl_ccalloc, align 8, !tbaa !3
  %3 = tail call ptr %2(i64 noundef 1, i64 noundef 5312) #11
  %.not = icmp eq ptr %3, null
  br i1 %.not, label %61, label %4

4:                                                ; preds = %1
  store i32 -1059136595, ptr %3, align 8, !tbaa !87
  %5 = getelementptr inbounds nuw i8, ptr %3, i64 240
  tail call void @Curl_req_init(ptr noundef nonnull %5) #11
  %6 = getelementptr inbounds nuw i8, ptr %3, i64 3472
  %7 = tail call i32 @Curl_resolver_init(ptr noundef nonnull %3, ptr noundef nonnull %6) #11
  %.not35 = icmp eq i32 %7, 0
  br i1 %.not35, label %10, label %8

8:                                                ; preds = %4
  tail call void @Curl_req_free(ptr noundef nonnull %5, ptr noundef nonnull %3) #11
  %9 = load ptr, ptr @Curl_cfree, align 8, !tbaa !3
  tail call void %9(ptr noundef nonnull %3) #11
  br label %61

10:                                               ; preds = %4
  %11 = tail call i32 @Curl_init_userdefined(ptr noundef nonnull %3)
  %.not36 = icmp eq i32 %11, 0
  br i1 %.not36, label %12, label %.critedge

12:                                               ; preds = %10
  %13 = getelementptr inbounds nuw i8, ptr %3, i64 3160
  tail call void @Curl_dyn_init(ptr noundef nonnull %13, i64 noundef 102400) #11
  %14 = tail call i32 @Curl_initinfo(ptr noundef nonnull %3) #11
  %15 = getelementptr inbounds nuw i8, ptr %3, i64 3144
  %16 = getelementptr inbounds nuw i8, ptr %3, i64 8
  %17 = getelementptr inbounds nuw i8, ptr %3, i64 2600
  store i64 -1, ptr %17, align 8, !tbaa !164
  %18 = getelementptr inbounds nuw i8, ptr %3, i64 2820
  tail call void @llvm.memset.p0.i64(ptr noundef nonnull align 8 dereferenceable(16) %16, i8 -1, i64 16, i1 false)
  tail call void @llvm.memset.p0.i64(ptr noundef nonnull align 8 dereferenceable(16) %15, i8 -1, i64 16, i1 false)
  %19 = load i32, ptr %18, align 4, !tbaa !165
  %20 = or i32 %19, 16
  store i32 %20, ptr %18, align 4, !tbaa !165
  %21 = getelementptr inbounds nuw i8, ptr %3, i64 3200
  store i64 -1, ptr %21, align 8, !tbaa !166
  %22 = getelementptr inbounds nuw i8, ptr %3, i64 4712
  tail call void @Curl_llist_init(ptr noundef nonnull %22, ptr noundef null) #11
  %23 = getelementptr inbounds nuw i8, ptr %3, i64 4872
  tail call void @Curl_netrc_init(ptr noundef nonnull %23) #11
  store ptr %3, ptr %0, align 8, !tbaa !83
  br label %61

.critedge:                                        ; preds = %10
  %24 = load ptr, ptr %6, align 8, !tbaa !112
  tail call void @Curl_resolver_cleanup(ptr noundef %24) #11
  %25 = getelementptr inbounds nuw i8, ptr %3, i64 3160
  tail call void @Curl_dyn_free(ptr noundef nonnull %25) #11
  %26 = getelementptr inbounds nuw i8, ptr %3, i64 1800
  br label %28

.preheader.i:                                     ; preds = %28
  %27 = getelementptr inbounds nuw i8, ptr %3, i64 2392
  br label %32

28:                                               ; preds = %28, %.critedge
  %indvars.iv.i = phi i64 [ 0, %.critedge ], [ %indvars.iv.next.i, %28 ]
  %29 = load ptr, ptr @Curl_cfree, align 8, !tbaa !3
  %30 = getelementptr inbounds nuw [74 x ptr], ptr %26, i64 0, i64 %indvars.iv.i
  %31 = load ptr, ptr %30, align 8, !tbaa !7
  tail call void %29(ptr noundef %31) #11
  store ptr null, ptr %30, align 8, !tbaa !7
  %indvars.iv.next.i = add nuw nsw i64 %indvars.iv.i, 1
  %exitcond.not.i = icmp eq i64 %indvars.iv.next.i, 74
  br i1 %exitcond.not.i, label %.preheader.i, label %28, !llvm.loop !9

32:                                               ; preds = %32, %.preheader.i
  %indvars.iv29.i = phi i64 [ 0, %.preheader.i ], [ %indvars.iv.next30.i, %32 ]
  %33 = load ptr, ptr @Curl_cfree, align 8, !tbaa !3
  %34 = getelementptr inbounds nuw [8 x ptr], ptr %27, i64 0, i64 %indvars.iv29.i
  %35 = load ptr, ptr %34, align 8, !tbaa !11
  tail call void %33(ptr noundef %35) #11
  store ptr null, ptr %34, align 8, !tbaa !11
  %indvars.iv.next30.i = add nuw nsw i64 %indvars.iv29.i, 1
  %exitcond32.not.i = icmp eq i64 %indvars.iv.next30.i, 8
  br i1 %exitcond32.not.i, label %36, label %32, !llvm.loop !13

36:                                               ; preds = %32
  %37 = getelementptr inbounds nuw i8, ptr %3, i64 5036
  %38 = load i32, ptr %37, align 4
  %39 = and i32 %38, 131072
  %.not.i = icmp eq i32 %39, 0
  br i1 %.not.i, label %46, label %40

40:                                               ; preds = %36
  %41 = load ptr, ptr @Curl_cfree, align 8, !tbaa !3
  %42 = getelementptr inbounds nuw i8, ptr %3, i64 4640
  %43 = load ptr, ptr %42, align 8, !tbaa !14
  tail call void %41(ptr noundef %43) #11
  %44 = load i32, ptr %37, align 4
  %45 = and i32 %44, -131073
  store i32 %45, ptr %37, align 4
  br label %46

46:                                               ; preds = %40, %36
  %47 = phi i32 [ %45, %40 ], [ %38, %36 ]
  %48 = getelementptr inbounds nuw i8, ptr %3, i64 4640
  store ptr null, ptr %48, align 8, !tbaa !14
  %49 = and i32 %47, 65536
  %.not25.i = icmp eq i32 %49, 0
  br i1 %.not25.i, label %Curl_freeset.exit, label %50

50:                                               ; preds = %46
  %51 = load ptr, ptr @Curl_cfree, align 8, !tbaa !3
  %52 = getelementptr inbounds nuw i8, ptr %3, i64 4632
  %53 = load ptr, ptr %52, align 8, !tbaa !81
  tail call void %51(ptr noundef %53) #11
  %54 = load i32, ptr %37, align 4
  %55 = and i32 %54, -65537
  store i32 %55, ptr %37, align 4
  br label %Curl_freeset.exit

Curl_freeset.exit:                                ; preds = %46, %50
  %56 = getelementptr inbounds nuw i8, ptr %3, i64 4632
  store ptr null, ptr %56, align 8, !tbaa !81
  %57 = getelementptr inbounds nuw i8, ptr %3, i64 832
  tail call void @Curl_mime_cleanpart(ptr noundef nonnull %57) #11
  %58 = getelementptr inbounds nuw i8, ptr %3, i64 4856
  %59 = load ptr, ptr %58, align 8, !tbaa !82
  tail call void @curl_slist_free_all(ptr noundef %59) #11
  store ptr null, ptr %58, align 8, !tbaa !82
  tail call void @Curl_req_free(ptr noundef nonnull %5, ptr noundef nonnull %3) #11
  %60 = load ptr, ptr @Curl_cfree, align 8, !tbaa !3
  tail call void %60(ptr noundef nonnull %3) #11
  br label %61

61:                                               ; preds = %Curl_freeset.exit, %12, %1, %8
  %.0 = phi i32 [ %7, %8 ], [ 27, %1 ], [ 0, %12 ], [ %11, %Curl_freeset.exit ]
  ret i32 %.0
}